; Function Attrs: mustprogress uwtable
define hidden void @_ZN4cvc58internal20FloatingPointLiteralC2ERKNS0_17FloatingPointSizeERKNS0_9BitVectorE(ptr noundef nonnull align 8 dereferenceable(64) %0, ptr noundef nonnull align 4 dereferenceable(8) %1, ptr noundef nonnull align 8 dereferenceable(24) %2) unnamed_addr #4 align 2 personality ptr @__gxx_personality_v0 {
  %4 = alloca %"class.cvc5::internal::FloatingPointSize", align 4
  %5 = alloca %"class.cvc5::internal::symfpuLiteral::wrappedBitVector.0", align 8
  tail call void @_ZN4cvc58internal17FloatingPointSizeC1ERKS1_(ptr noundef nonnull align 4 dereferenceable(8) %0, ptr noundef nonnull align 4 dereferenceable(8) %1)
  %6 = getelementptr inbounds nuw i8, ptr %0, i64 8
  call void @_ZN4cvc58internal17FloatingPointSizeC1ERKS1_(ptr noundef nonnull align 4 dereferenceable(8) %4, ptr noundef nonnull align 4 dereferenceable(8) %1)
  call void @llvm.lifetime.start.p0(i64 24, ptr nonnull %5) #16
  %7 = load i32, ptr %2, align 8, !tbaa !9
  store i32 %7, ptr %5, align 8, !tbaa !9
  %8 = getelementptr inbounds nuw i8, ptr %5, i64 8
  %9 = getelementptr inbounds nuw i8, ptr %2, i64 8
  call void @__gmpz_init_set(ptr noundef nonnull align 8 dereferenceable(16) %8, ptr noundef nonnull align 8 dereferenceable(16) %9)
  invoke void @_ZN6symfpu6unpackIN4cvc58internal13symfpuLiteral6traitsEEENS_13unpackedFloatIT_EENS6_3fptERKNS6_3ubvE(ptr dead_on_unwind nonnull writable sret(%"class.symfpu::unpackedFloat") align 8 %6, ptr noundef nonnull %4, ptr noundef nonnull align 8 dereferenceable(24) %5)
          to label %10 unwind label %14

10:                                               ; preds = %3
  invoke void @__gmpz_clear(ptr noundef nonnull align 8 dereferenceable(16) %8)
          to label %_ZN4cvc58internal9BitVectorD2Ev.exit unwind label %11

11:                                               ; preds = %10
  %12 = landingpad { ptr, i32 }
          catch ptr null
  %13 = extractvalue { ptr, i32 } %12, 0
  call void @__clang_call_terminate(ptr %13) #17
  unreachable

_ZN4cvc58internal9BitVectorD2Ev.exit:             ; preds = %10
  call void @llvm.lifetime.end.p0(i64 24, ptr nonnull %5) #16
  ret void

14:                                               ; preds = %3
  %15 = landingpad { ptr, i32 }
          cleanup
  invoke void @__gmpz_clear(ptr noundef nonnull align 8 dereferenceable(16) %8)
          to label %_ZN4cvc58internal9BitVectorD2Ev.exit5 unwind label %16

16:                                               ; preds = %14
  %17 = landingpad { ptr, i32 }
          catch ptr null
  %18 = extractvalue { ptr, i32 } %17, 0
  call void @__clang_call_terminate(ptr %18) #17
  unreachable

_ZN4cvc58internal9BitVectorD2Ev.exit5:            ; preds = %14
  call void @llvm.lifetime.end.p0(i64 24, ptr nonnull %5) #16
  resume { ptr, i32 } %15
}